target datalayout = "e-m:e-p270:32:32-p271:32:32-p272:64:64-i64:64-i128:128-f80:128-n8:16:32:64-S128"
target triple = "x86_64-unknown-linux-gnu"

%struct.FDMonOps = type { ptr, ptr, ptr }
%struct.AioContext = type { %struct._GSource, %struct.QemuRecMutex, ptr, %struct.AioHandlerList, %struct.AioHandlerList, i32, %struct.QemuLockCnt, %struct.BHList, %struct.anon, i8, %struct.EventNotifier, %struct.anon.0, ptr, i32, i32, ptr, ptr, %struct.io_uring, %struct.AioHandlerSList, %struct.QEMUTimerListGroup, i32, i64, i64, i64, i64, i64, %struct.AioHandlerList, i8, i32, ptr }
%struct._GSource = type { ptr, ptr, ptr, i32, ptr, i32, i32, i32, ptr, ptr, ptr, ptr, ptr }
%struct.QemuRecMutex = type { %struct.QemuMutex }
%struct.QemuMutex = type { %union.pthread_mutex_t, i8 }
%union.pthread_mutex_t = type { %struct.__pthread_mutex_s }
%struct.__pthread_mutex_s = type { i32, i32, i32, i32, i32, i16, i16, %struct.__pthread_internal_list }
%struct.__pthread_internal_list = type { ptr, ptr }
%struct.QemuLockCnt = type { i32 }
%struct.BHList = type { ptr }
%struct.anon = type { ptr, ptr }
%struct.EventNotifier = type { i32, i32, i8 }
%struct.anon.0 = type { ptr }
%struct.io_uring = type { %struct.io_uring_sq, %struct.io_uring_cq, i32, i32, i32, [3 x i32] }
%struct.io_uring_sq = type { ptr, ptr, ptr, ptr, ptr, ptr, ptr, ptr, i32, i32, i64, ptr, [4 x i32] }
%struct.io_uring_cq = type { ptr, ptr, ptr, ptr, ptr, ptr, ptr, i64, ptr, [4 x i32] }
%struct.AioHandlerSList = type { ptr }
%struct.QEMUTimerListGroup = type { [4 x ptr] }
%struct.AioHandlerList = type { ptr }
%struct.AioHandler = type { %struct._GPollFD, ptr, ptr, ptr, ptr, ptr, ptr, ptr, %struct.anon.1, %struct.anon.2, %struct.anon.3, %struct.anon.4, %struct.anon.5, i32, i64, i8 }
%struct._GPollFD = type { i32, i16, i16 }
%struct.anon.1 = type { ptr, ptr }
%struct.anon.2 = type { ptr, ptr }
%struct.anon.3 = type { ptr, ptr }
%struct.anon.4 = type { ptr, ptr }
%struct.anon.5 = type { ptr }

@fdmon_io_uring_ops = internal constant %struct.FDMonOps { ptr @fdmon_io_uring_update, ptr @fdmon_io_uring_wait, ptr @fdmon_io_uring_need_wait }, align 8
@.str = private unnamed_addr constant [30 x i8] c"../qemu/util/fdmon-io_uring.c\00", align 1
@__func__.fdmon_io_uring_destroy = private unnamed_addr constant [23 x i8] c"fdmon_io_uring_destroy\00", align 1
@fdmon_poll_ops = external constant %struct.FDMonOps, align 8

; Function Attrs: nounwind sspstrong uwtable
define dso_local void @fdmon_io_uring_destroy(ptr noundef %ctx) #0 {
entry:
  %ctx.addr = alloca ptr, align 8
  %node = alloca ptr, align 8
  %_val0 = alloca ptr, align 8
  %tmp = alloca ptr, align 8
  %flags = alloca i32, align 4
  %.atomictmp = alloca i32, align 4
  %atomic-temp = alloca i32, align 4
  %.atomictmp18 = alloca ptr, align 8
  %.atomictmp41 = alloca ptr, align 8
  store ptr %ctx, ptr %ctx.addr, align 8
  %0 = load ptr, ptr %ctx.addr, align 8
  %fdmon_ops = getelementptr inbounds %struct.AioContext, ptr %0, i32 0, i32 29
  %1 = load ptr, ptr %fdmon_ops, align 8
  %cmp = icmp eq ptr %1, @fdmon_io_uring_ops
  br i1 %cmp, label %if.then, label %if.end48

if.then:                                          ; preds = %entry
  %2 = load ptr, ptr %ctx.addr, align 8
  %fdmon_io_uring = getelementptr inbounds %struct.AioContext, ptr %2, i32 0, i32 17
  call void @io_uring_queue_exit(ptr noundef %fdmon_io_uring)
  br label %while.cond

while.cond:                                       ; preds = %do.end45, %if.then
  br label %while.cond1

while.cond1:                                      ; preds = %do.end, %while.cond
  br i1 false, label %while.body, label %while.end

while.body:                                       ; preds = %while.cond1
  br label %do.body

do.body:                                          ; preds = %while.body
  call void @g_assertion_message_expr(ptr noundef null, ptr noundef @.str, i32 noundef 346, ptr noundef @__func__.fdmon_io_uring_destroy, ptr noundef null) #4
  unreachable

do.end:                                           ; No predecessors!
  br label %while.cond1

while.end:                                        ; preds = %while.cond1
  %3 = load ptr, ptr %ctx.addr, align 8
  %submit_list = getelementptr inbounds %struct.AioContext, ptr %3, i32 0, i32 18
  %slh_first = getelementptr inbounds %struct.AioHandlerSList, ptr %submit_list, i32 0, i32 0
  %4 = load atomic i64, ptr %slh_first monotonic, align 8
  store i64 %4, ptr %_val0, align 8
  call void asm sideeffect "", "~{memory},~{dirflag},~{fpsr},~{flags}"() #5, !srcloc !5
  %5 = load ptr, ptr %_val0, align 8
  store ptr %5, ptr %tmp, align 8
  %6 = load ptr, ptr %tmp, align 8
  store ptr %6, ptr %node, align 8
  %tobool = icmp ne ptr %6, null
  br i1 %tobool, label %while.body2, label %while.end46

while.body2:                                      ; preds = %while.end
  %7 = load ptr, ptr %node, align 8
  %flags3 = getelementptr inbounds %struct.AioHandler, ptr %7, i32 0, i32 13
  store i32 -8, ptr %.atomictmp, align 4
  %8 = load i32, ptr %.atomictmp, align 4
  %9 = atomicrmw and ptr %flags3, i32 %8 seq_cst, align 8
  store i32 %9, ptr %atomic-temp, align 4
  %10 = load i32, ptr %atomic-temp, align 4
  store i32 %10, ptr %flags, align 4
  %11 = load i32, ptr %flags, align 4
  %and = and i32 %11, 4
  %tobool4 = icmp ne i32 %and, 0
  br i1 %tobool4, label %if.then5, label %if.end31

if.then5:                                         ; preds = %while.body2
  br label %do.body6

do.body6:                                         ; preds = %if.then5
  %12 = load ptr, ptr %ctx.addr, align 8
  %deleted_aio_handlers = getelementptr inbounds %struct.AioContext, ptr %12, i32 0, i32 4
  %lh_first = getelementptr inbounds %struct.AioHandlerList, ptr %deleted_aio_handlers, i32 0, i32 0
  %13 = load ptr, ptr %node, align 8
  %node_deleted = getelementptr inbounds %struct.AioHandler, ptr %13, i32 0, i32 10
  %le_prev = getelementptr inbounds %struct.anon.3, ptr %node_deleted, i32 0, i32 1
  store ptr %lh_first, ptr %le_prev, align 8
  %14 = load ptr, ptr %ctx.addr, align 8
  %deleted_aio_handlers7 = getelementptr inbounds %struct.AioContext, ptr %14, i32 0, i32 4
  %lh_first8 = getelementptr inbounds %struct.AioHandlerList, ptr %deleted_aio_handlers7, i32 0, i32 0
  %15 = load ptr, ptr %lh_first8, align 8
  %16 = load ptr, ptr %node, align 8
  %node_deleted9 = getelementptr inbounds %struct.AioHandler, ptr %16, i32 0, i32 10
  %le_next = getelementptr inbounds %struct.anon.3, ptr %node_deleted9, i32 0, i32 0
  store ptr %15, ptr %le_next, align 8
  br label %do.body10

do.body10:                                        ; preds = %do.body6
  br label %while.cond11

while.cond11:                                     ; preds = %do.end14, %do.body10
  br i1 false, label %while.body12, label %while.end15

while.body12:                                     ; preds = %while.cond11
  br label %do.body13

do.body13:                                        ; preds = %while.body12
  call void @g_assertion_message_expr(ptr noundef null, ptr noundef @.str, i32 noundef 353, ptr noundef @__func__.fdmon_io_uring_destroy, ptr noundef null) #4
  unreachable

do.end14:                                         ; No predecessors!
  br label %while.cond11

while.end15:                                      ; preds = %while.cond11
  %17 = load ptr, ptr %ctx.addr, align 8
  %deleted_aio_handlers16 = getelementptr inbounds %struct.AioContext, ptr %17, i32 0, i32 4
  %lh_first17 = getelementptr inbounds %struct.AioHandlerList, ptr %deleted_aio_handlers16, i32 0, i32 0
  %18 = load ptr, ptr %node, align 8
  store ptr %18, ptr %.atomictmp18, align 8
  %19 = load i64, ptr %.atomictmp18, align 8
  store atomic i64 %19, ptr %lh_first17 release, align 8
  br label %do.end19

do.end19:                                         ; preds = %while.end15
  %20 = load ptr, ptr %node, align 8
  %node_deleted20 = getelementptr inbounds %struct.AioHandler, ptr %20, i32 0, i32 10
  %le_next21 = getelementptr inbounds %struct.anon.3, ptr %node_deleted20, i32 0, i32 0
  %21 = load ptr, ptr %le_next21, align 8
  %cmp22 = icmp ne ptr %21, null
  br i1 %cmp22, label %if.then23, label %if.end

if.then23:                                        ; preds = %do.end19
  %22 = load ptr, ptr %node, align 8
  %node_deleted24 = getelementptr inbounds %struct.AioHandler, ptr %22, i32 0, i32 10
  %le_next25 = getelementptr inbounds %struct.anon.3, ptr %node_deleted24, i32 0, i32 0
  %23 = load ptr, ptr %node, align 8
  %node_deleted26 = getelementptr inbounds %struct.AioHandler, ptr %23, i32 0, i32 10
  %le_next27 = getelementptr inbounds %struct.anon.3, ptr %node_deleted26, i32 0, i32 0
  %24 = load ptr, ptr %le_next27, align 8
  %node_deleted28 = getelementptr inbounds %struct.AioHandler, ptr %24, i32 0, i32 10
  %le_prev29 = getelementptr inbounds %struct.anon.3, ptr %node_deleted28, i32 0, i32 1
  store ptr %le_next25, ptr %le_prev29, align 8
  br label %if.end

if.end:                                           ; preds = %if.then23, %do.end19
  br label %do.end30

do.end30:                                         ; preds = %if.end
  br label %if.end31

if.end31:                                         ; preds = %do.end30, %while.body2
  br label %do.body32

do.body32:                                        ; preds = %if.end31
  br label %do.body33

do.body33:                                        ; preds = %do.body32
  br label %while.cond34

while.cond34:                                     ; preds = %do.end37, %do.body33
  br i1 false, label %while.body35, label %while.end38

while.body35:                                     ; preds = %while.cond34
  br label %do.body36

do.body36:                                        ; preds = %while.body35
  call void @g_assertion_message_expr(ptr noundef null, ptr noundef @.str, i32 noundef 356, ptr noundef @__func__.fdmon_io_uring_destroy, ptr noundef null) #4
  unreachable

do.end37:                                         ; No predecessors!
  br label %while.cond34

while.end38:                                      ; preds = %while.cond34
  %25 = load ptr, ptr %ctx.addr, align 8
  %submit_list39 = getelementptr inbounds %struct.AioContext, ptr %25, i32 0, i32 18
  %slh_first40 = getelementptr inbounds %struct.AioHandlerSList, ptr %submit_list39, i32 0, i32 0
  %26 = load ptr, ptr %ctx.addr, align 8
  %submit_list42 = getelementptr inbounds %struct.AioContext, ptr %26, i32 0, i32 18
  %slh_first43 = getelementptr inbounds %struct.AioHandlerSList, ptr %submit_list42, i32 0, i32 0
  %27 = load ptr, ptr %slh_first43, align 8
  %node_submitted = getelementptr inbounds %struct.AioHandler, ptr %27, i32 0, i32 12
  %sle_next = getelementptr inbounds %struct.anon.5, ptr %node_submitted, i32 0, i32 0
  %28 = load ptr, ptr %sle_next, align 8
  store ptr %28, ptr %.atomictmp41, align 8
  %29 = load i64, ptr %.atomictmp41, align 8
  store atomic i64 %29, ptr %slh_first40 monotonic, align 8
  br label %do.end44

do.end44:                                         ; preds = %while.end38
  br label %do.end45

do.end45:                                         ; preds = %do.end44
  br label %while.cond, !llvm.loop !6

while.end46:                                      ; preds = %while.end
  %30 = load ptr, ptr %ctx.addr, align 8
  %fdmon_ops47 = getelementptr inbounds %struct.AioContext, ptr %30, i32 0, i32 29
  store ptr @fdmon_poll_ops, ptr %fdmon_ops47, align 8
  br label %if.end48

if.end48:                                         ; preds = %while.end46, %entry
  ret void
}