; Function Attrs: nounwind sspstrong uwtable
define dso_local void @fdmon_io_uring_destroy(ptr noundef %ctx) local_unnamed_addr #0 {
entry:
  %fdmon_ops = getelementptr inbounds nuw i8, ptr %ctx, i64 576
  %0 = load ptr, ptr %fdmon_ops, align 8
  %cmp = icmp eq ptr %0, @fdmon_io_uring_ops
  br i1 %cmp, label %if.then, label %if.end48

if.then:                                          ; preds = %entry
  %fdmon_io_uring = getelementptr inbounds nuw i8, ptr %ctx, i64 256
  tail call void @io_uring_queue_exit(ptr noundef nonnull %fdmon_io_uring) #6
  %submit_list = getelementptr inbounds nuw i8, ptr %ctx, i64 472
  %1 = load atomic i64, ptr %submit_list monotonic, align 8
  tail call void asm sideeffect "", "~{memory},~{dirflag},~{fpsr},~{flags}"() #6, !srcloc !5
  %tobool.not16 = icmp eq i64 %1, 0
  br i1 %tobool.not16, label %while.end46, label %while.body2.lr.ph

while.body2.lr.ph:                                ; preds = %if.then
  %deleted_aio_handlers = getelementptr inbounds nuw i8, ptr %ctx, i64 160
  br label %while.body2

while.body2:                                      ; preds = %while.body2.lr.ph, %while.end38
  %2 = phi i64 [ %1, %while.body2.lr.ph ], [ %10, %while.end38 ]
  %3 = inttoptr i64 %2 to ptr
  %flags3 = getelementptr inbounds nuw i8, ptr %3, i64 136
  %4 = atomicrmw and ptr %flags3, i32 -8 seq_cst, align 8
  %and = and i32 %4, 4
  %tobool4.not = icmp eq i32 %and, 0
  br i1 %tobool4.not, label %while.end38, label %do.body6

do.body6:                                         ; preds = %while.body2
  %node_deleted = getelementptr inbounds nuw i8, ptr %3, i64 96
  %le_prev = getelementptr inbounds nuw i8, ptr %3, i64 104
  store ptr %deleted_aio_handlers, ptr %le_prev, align 8
  %5 = load ptr, ptr %deleted_aio_handlers, align 8
  store ptr %5, ptr %node_deleted, align 8
  store atomic i64 %2, ptr %deleted_aio_handlers release, align 8
  %6 = load ptr, ptr %node_deleted, align 8
  %cmp22.not = icmp eq ptr %6, null
  br i1 %cmp22.not, label %while.end38, label %if.then23

if.then23:                                        ; preds = %do.body6
  %le_prev29 = getelementptr inbounds nuw i8, ptr %6, i64 104
  store ptr %node_deleted, ptr %le_prev29, align 8
  br label %while.end38

while.end38:                                      ; preds = %if.then23, %do.body6, %while.body2
  %7 = load ptr, ptr %submit_list, align 8
  %node_submitted = getelementptr inbounds nuw i8, ptr %7, i64 128
  %8 = load ptr, ptr %node_submitted, align 8
  %9 = ptrtoint ptr %8 to i64
  store atomic i64 %9, ptr %submit_list monotonic, align 8
  %10 = load atomic i64, ptr %submit_list monotonic, align 8
  tail call void asm sideeffect "", "~{memory},~{dirflag},~{fpsr},~{flags}"() #6, !srcloc !5
  %tobool.not = icmp eq i64 %10, 0
  br i1 %tobool.not, label %while.end46, label %while.body2, !llvm.loop !6

while.end46:                                      ; preds = %while.end38, %if.then
  store ptr @fdmon_poll_ops, ptr %fdmon_ops, align 8
  br label %if.end48

if.end48:                                         ; preds = %while.end46, %entry
  ret void
}